; Function Attrs: nounwind uwtable
define internal fastcc void @Vec_IntFillExtra(ptr noundef captures(none) %0, i32 noundef range(i32 -2147483647, -2147483648) %1, i32 noundef range(i32 -1, 1) %2) unnamed_addr #1 {
  %4 = getelementptr inbounds nuw i8, ptr %0, i64 4
  %5 = load i32, ptr %4, align 4
  %.not = icmp sgt i32 %1, %5
  br i1 %.not, label %6, label %41

6:                                                ; preds = %3
  %7 = load i32, ptr %0, align 8
  %8 = shl nsw i32 %7, 1
  %9 = icmp sgt i32 %1, %8
  %.not.i = icmp slt i32 %7, %1
  br i1 %9, label %10, label %22

10:                                               ; preds = %6
  br i1 %.not.i, label %11, label %Vec_IntGrow.exit

11:                                               ; preds = %10
  %12 = getelementptr inbounds nuw i8, ptr %0, i64 8
  %13 = load ptr, ptr %12, align 8
  %.not9.i = icmp eq ptr %13, null
  %14 = sext i32 %1 to i64
  %15 = shl nsw i64 %14, 2
  br i1 %.not9.i, label %18, label %16

16:                                               ; preds = %11
  %17 = tail call ptr @realloc(ptr noundef nonnull %13, i64 noundef %15) #28
  br label %20

18:                                               ; preds = %11
  %19 = tail call noalias ptr @malloc(i64 noundef %15) #25
  br label %20

20:                                               ; preds = %18, %16
  %21 = phi ptr [ %17, %16 ], [ %19, %18 ]
  store ptr %21, ptr %12, align 8
  br label %Vec_IntGrow.exit.sink.split

22:                                               ; preds = %6
  br i1 %.not.i, label %23, label %Vec_IntGrow.exit

23:                                               ; preds = %22
  %24 = getelementptr inbounds nuw i8, ptr %0, i64 8
  %25 = load ptr, ptr %24, align 8
  %.not9.i21 = icmp eq ptr %25, null
  %26 = sext i32 %8 to i64
  %27 = shl nsw i64 %26, 2
  br i1 %.not9.i21, label %30, label %28

28:                                               ; preds = %23
  %29 = tail call ptr @realloc(ptr noundef nonnull %25, i64 noundef %27) #28
  br label %32

30:                                               ; preds = %23
  %31 = tail call noalias ptr @malloc(i64 noundef %27) #25
  br label %32

32:                                               ; preds = %30, %28
  %33 = phi ptr [ %29, %28 ], [ %31, %30 ]
  store ptr %33, ptr %24, align 8
  br label %Vec_IntGrow.exit.sink.split

Vec_IntGrow.exit.sink.split:                      ; preds = %20, %32
  %.sink = phi i32 [ %8, %32 ], [ %1, %20 ]
  store i32 %.sink, ptr %0, align 8
  br label %Vec_IntGrow.exit

Vec_IntGrow.exit:                                 ; preds = %Vec_IntGrow.exit.sink.split, %10, %22
  %34 = load i32, ptr %4, align 4
  %35 = icmp slt i32 %34, %1
  br i1 %35, label %.lr.ph, label %._crit_edge

.lr.ph:                                           ; preds = %Vec_IntGrow.exit
  %36 = getelementptr inbounds nuw i8, ptr %0, i64 8
  %37 = sext i32 %34 to i64
  %wide.trip.count = sext i32 %1 to i64
  br label %38

38:                                               ; preds = %.lr.ph, %38
  %indvars.iv = phi i64 [ %37, %.lr.ph ], [ %indvars.iv.next, %38 ]
  %39 = load ptr, ptr %36, align 8
  %40 = getelementptr inbounds i32, ptr %39, i64 %indvars.iv
  store i32 %2, ptr %40, align 4
  %indvars.iv.next = add nsw i64 %indvars.iv, 1
  %exitcond.not = icmp eq i64 %indvars.iv.next, %wide.trip.count
  br i1 %exitcond.not, label %._crit_edge, label %38, !llvm.loop !24

._crit_edge:                                      ; preds = %38, %Vec_IntGrow.exit
  store i32 %1, ptr %4, align 4
  br label %41

41:                                               ; preds = %3, %._crit_edge
  ret void
}